#include <math.h>
#include <stdio.h>
#include <stdlib.h>
#include <string.h>

int main()
{
    void a(int x,int y);
    int n;
    scanf("%d",&n);
    a(n,10000);
        return 0;
}


void a(int x,int y)
{
     int t,k,p;
     
     t=x/y;
     x=x-t*y;
     if(y==1)printf("%d",t);
     else
     {
         a(x,y/10);
         if(t==0);
         else printf("%d",t);
     }
    
}